target datalayout = "e-m:e-p270:32:32-p271:32:32-p272:64:64-i64:64-i128:128-f80:128-n8:16:32:64-S128"
target triple = "x86_64-pc-linux-gnu"

%class.cmGeneratedFileStreamBase = type <{ %"class.std::__cxx11::basic_string", %"class.std::__cxx11::basic_string", %"class.std::__cxx11::basic_string", i8, i8, i8, i8, [4 x i8] }>
%"class.std::__cxx11::basic_string" = type { %"struct.std::__cxx11::basic_string<char>::_Alloc_hider", i64, %union.anon }
%"struct.std::__cxx11::basic_string<char>::_Alloc_hider" = type { ptr }
%union.anon = type { i64, [8 x i8] }

; Function Attrs: mustprogress uwtable
define dso_local noundef zeroext i1 @_ZN21cmGeneratedFileStream5CloseEv(ptr noundef nonnull align 8 dereferenceable(348) %0) #4 align 2 {
  %2 = alloca ptr, align 8
  store ptr %0, ptr %2, align 8
  %3 = load ptr, ptr %2, align 8
  %4 = load ptr, ptr %3, align 8
  %5 = getelementptr i8, ptr %4, i64 -24
  %6 = load i64, ptr %5, align 8
  %7 = getelementptr inbounds i8, ptr %3, i64 %6
  %8 = call noundef zeroext i1 @_ZNKSt9basic_iosIcSt11char_traitsIcEE4failEv(ptr noundef nonnull align 8 dereferenceable(264) %7)
  %9 = xor i1 %8, true
  %10 = getelementptr inbounds i8, ptr %3, i64 248
  %11 = getelementptr inbounds %class.cmGeneratedFileStreamBase, ptr %10, i32 0, i32 4
  %12 = zext i1 %9 to i8
  store i8 %12, ptr %11, align 1
  call void @_ZNSt14basic_ofstreamIcSt11char_traitsIcEE5closeEv(ptr noundef nonnull align 8 dereferenceable(248) %3)
  %13 = getelementptr inbounds i8, ptr %3, i64 248
  %14 = call noundef zeroext i1 @_ZN25cmGeneratedFileStreamBase5CloseEv(ptr noundef nonnull align 8 dereferenceable(100) %13)
  ret i1 %14
}