; Function Attrs: mustprogress uwtable
define dso_local noundef zeroext i1 @_ZN21cmGeneratedFileStream5CloseEv(ptr noundef nonnull align 8 dereferenceable(348) %0) local_unnamed_addr #3 align 2 {
  %2 = load ptr, ptr %0, align 8
  %3 = getelementptr i8, ptr %2, i64 -24
  %4 = load i64, ptr %3, align 8
  %5 = getelementptr inbounds i8, ptr %0, i64 %4
  %6 = tail call noundef zeroext i1 @_ZNKSt9basic_iosIcSt11char_traitsIcEE4failEv(ptr noundef nonnull align 8 dereferenceable(264) %5)
  %7 = xor i1 %6, true
  %8 = getelementptr inbounds i8, ptr %0, i64 248
  %9 = getelementptr inbounds i8, ptr %0, i64 345
  %10 = zext i1 %7 to i8
  store i8 %10, ptr %9, align 1
  tail call void @_ZNSt14basic_ofstreamIcSt11char_traitsIcEE5closeEv(ptr noundef nonnull align 8 dereferenceable(248) %0)
  %11 = tail call noundef zeroext i1 @_ZN25cmGeneratedFileStreamBase5CloseEv(ptr noundef nonnull align 8 dereferenceable(100) %8)
  ret i1 %11
}